; Function Attrs: mustprogress nounwind uwtable
define internal fastcc void @_ZN5Yosys7hashlib4dictISt4pairIN12_GLOBAL__N_112DftTagWorker7tag_setES5_ES5_NS0_8hash_opsIS6_EEED2Ev(ptr nocapture noundef nonnull readonly align 8 dereferenceable(49) %0) unnamed_addr #3 align 2 personality ptr @__gxx_personality_v0 {
  %2 = getelementptr inbounds i8, ptr %0, i64 24
  %.val = load ptr, ptr %2, align 8
  %.not.i.i.i = icmp eq ptr %.val, null
  br i1 %.not.i.i.i, label %_ZNSt6vectorIN5Yosys7hashlib4dictISt4pairIN12_GLOBAL__N_112DftTagWorker7tag_setES6_ES6_NS1_8hash_opsIS7_EEE7entry_tESaISB_EED2Ev.exit, label %3

3:                                                ; preds = %1
  tail call void @_ZdlPv(ptr noundef nonnull %.val) #21
  br label %_ZNSt6vectorIN5Yosys7hashlib4dictISt4pairIN12_GLOBAL__N_112DftTagWorker7tag_setES6_ES6_NS1_8hash_opsIS7_EEE7entry_tESaISB_EED2Ev.exit

_ZNSt6vectorIN5Yosys7hashlib4dictISt4pairIN12_GLOBAL__N_112DftTagWorker7tag_setES6_ES6_NS1_8hash_opsIS7_EEE7entry_tESaISB_EED2Ev.exit: ; preds = %1, %3
  %4 = load ptr, ptr %0, align 8
  %.not.i.i.i2 = icmp eq ptr %4, null
  br i1 %.not.i.i.i2, label %_ZNSt6vectorIiSaIiEED2Ev.exit, label %5

5:                                                ; preds = %_ZNSt6vectorIN5Yosys7hashlib4dictISt4pairIN12_GLOBAL__N_112DftTagWorker7tag_setES6_ES6_NS1_8hash_opsIS7_EEE7entry_tESaISB_EED2Ev.exit
  tail call void @_ZdlPv(ptr noundef nonnull %4) #21
  br label %_ZNSt6vectorIiSaIiEED2Ev.exit

_ZNSt6vectorIiSaIiEED2Ev.exit:                    ; preds = %_ZNSt6vectorIN5Yosys7hashlib4dictISt4pairIN12_GLOBAL__N_112DftTagWorker7tag_setES6_ES6_NS1_8hash_opsIS7_EEE7entry_tESaISB_EED2Ev.exit, %5
  ret void
}